target datalayout = "e-m:e-p270:32:32-p271:32:32-p272:64:64-i64:64-i128:128-f80:128-n8:16:32:64-S128"
target triple = "x86_64-pc-linux-gnu"

@bb_get_size_str.size_str = internal global [64 x i8] zeroinitializer, align 16
@.str.67 = private unnamed_addr constant [4 x i8] c"%lu\00", align 1
@.str.68 = private unnamed_addr constant [5 x i8] c"%luN\00", align 1
@.str.69 = private unnamed_addr constant [7 x i8] c"%luPiB\00", align 1
@.str.70 = private unnamed_addr constant [6 x i8] c"%luPB\00", align 1
@.str.71 = private unnamed_addr constant [7 x i8] c"%luTiB\00", align 1
@.str.72 = private unnamed_addr constant [6 x i8] c"%luTB\00", align 1
@.str.73 = private unnamed_addr constant [7 x i8] c"%luGiB\00", align 1
@.str.74 = private unnamed_addr constant [6 x i8] c"%luGB\00", align 1
@.str.75 = private unnamed_addr constant [7 x i8] c"%luMiB\00", align 1
@.str.76 = private unnamed_addr constant [6 x i8] c"%luMB\00", align 1
@.str.77 = private unnamed_addr constant [7 x i8] c"%luKiB\00", align 1
@.str.78 = private unnamed_addr constant [6 x i8] c"%luKB\00", align 1

; Function Attrs: nounwind uwtable
define dso_local ptr @bb_get_size_str(i64 noundef %0) #0 {
  %2 = alloca i64, align 8
  store i64 %0, ptr %2, align 8
  %3 = load i64, ptr %2, align 8
  %4 = icmp eq i64 %3, 0
  br i1 %4, label %5, label %8

5:                                                ; preds = %1
  %6 = load i64, ptr %2, align 8
  %7 = call i32 (ptr, i64, ptr, ...) @snprintf(ptr noundef @bb_get_size_str.size_str, i64 noundef 64, ptr noundef @.str.67, i64 noundef %6) #9
  br label %121

8:                                                ; preds = %1
  %9 = load i64, ptr %2, align 8
  %10 = and i64 %9, -9223372036854775808
  %11 = icmp ne i64 %10, 0
  br i1 %11, label %12, label %17

12:                                               ; preds = %8
  %13 = load i64, ptr %2, align 8
  %14 = and i64 %13, 9223372036854775807
  store i64 %14, ptr %2, align 8
  %15 = load i64, ptr %2, align 8
  %16 = call i32 (ptr, i64, ptr, ...) @snprintf(ptr noundef @bb_get_size_str.size_str, i64 noundef 64, ptr noundef @.str.68, i64 noundef %15) #9
  br label %120

17:                                               ; preds = %8
  %18 = load i64, ptr %2, align 8
  %19 = urem i64 %18, 1125899906842624
  %20 = icmp eq i64 %19, 0
  br i1 %20, label %21, label %26

21:                                               ; preds = %17
  %22 = load i64, ptr %2, align 8
  %23 = udiv i64 %22, 1125899906842624
  store i64 %23, ptr %2, align 8
  %24 = load i64, ptr %2, align 8
  %25 = call i32 (ptr, i64, ptr, ...) @snprintf(ptr noundef @bb_get_size_str.size_str, i64 noundef 64, ptr noundef @.str.69, i64 noundef %24) #9
  br label %119

26:                                               ; preds = %17
  %27 = load i64, ptr %2, align 8
  %28 = urem i64 %27, 1000000000000000
  %29 = icmp eq i64 %28, 0
  br i1 %29, label %30, label %35

30:                                               ; preds = %26
  %31 = load i64, ptr %2, align 8
  %32 = udiv i64 %31, 1000000000000000
  store i64 %32, ptr %2, align 8
  %33 = load i64, ptr %2, align 8
  %34 = call i32 (ptr, i64, ptr, ...) @snprintf(ptr noundef @bb_get_size_str.size_str, i64 noundef 64, ptr noundef @.str.70, i64 noundef %33) #9
  br label %118

35:                                               ; preds = %26
  %36 = load i64, ptr %2, align 8
  %37 = urem i64 %36, 1099511627776
  %38 = icmp eq i64 %37, 0
  br i1 %38, label %39, label %44

39:                                               ; preds = %35
  %40 = load i64, ptr %2, align 8
  %41 = udiv i64 %40, 1099511627776
  store i64 %41, ptr %2, align 8
  %42 = load i64, ptr %2, align 8
  %43 = call i32 (ptr, i64, ptr, ...) @snprintf(ptr noundef @bb_get_size_str.size_str, i64 noundef 64, ptr noundef @.str.71, i64 noundef %42) #9
  br label %117

44:                                               ; preds = %35
  %45 = load i64, ptr %2, align 8
  %46 = urem i64 %45, 1000000000000
  %47 = icmp eq i64 %46, 0
  br i1 %47, label %48, label %53

48:                                               ; preds = %44
  %49 = load i64, ptr %2, align 8
  %50 = udiv i64 %49, 1000000000000
  store i64 %50, ptr %2, align 8
  %51 = load i64, ptr %2, align 8
  %52 = call i32 (ptr, i64, ptr, ...) @snprintf(ptr noundef @bb_get_size_str.size_str, i64 noundef 64, ptr noundef @.str.72, i64 noundef %51) #9
  br label %116

53:                                               ; preds = %44
  %54 = load i64, ptr %2, align 8
  %55 = urem i64 %54, 1073741824
  %56 = icmp eq i64 %55, 0
  br i1 %56, label %57, label %62

57:                                               ; preds = %53
  %58 = load i64, ptr %2, align 8
  %59 = udiv i64 %58, 1073741824
  store i64 %59, ptr %2, align 8
  %60 = load i64, ptr %2, align 8
  %61 = call i32 (ptr, i64, ptr, ...) @snprintf(ptr noundef @bb_get_size_str.size_str, i64 noundef 64, ptr noundef @.str.73, i64 noundef %60) #9
  br label %115

62:                                               ; preds = %53
  %63 = load i64, ptr %2, align 8
  %64 = urem i64 %63, 1000000000
  %65 = icmp eq i64 %64, 0
  br i1 %65, label %66, label %71

66:                                               ; preds = %62
  %67 = load i64, ptr %2, align 8
  %68 = udiv i64 %67, 1000000000
  store i64 %68, ptr %2, align 8
  %69 = load i64, ptr %2, align 8
  %70 = call i32 (ptr, i64, ptr, ...) @snprintf(ptr noundef @bb_get_size_str.size_str, i64 noundef 64, ptr noundef @.str.74, i64 noundef %69) #9
  br label %114

71:                                               ; preds = %62
  %72 = load i64, ptr %2, align 8
  %73 = urem i64 %72, 1048576
  %74 = icmp eq i64 %73, 0
  br i1 %74, label %75, label %80

75:                                               ; preds = %71
  %76 = load i64, ptr %2, align 8
  %77 = udiv i64 %76, 1048576
  store i64 %77, ptr %2, align 8
  %78 = load i64, ptr %2, align 8
  %79 = call i32 (ptr, i64, ptr, ...) @snprintf(ptr noundef @bb_get_size_str.size_str, i64 noundef 64, ptr noundef @.str.75, i64 noundef %78) #9
  br label %113

80:                                               ; preds = %71
  %81 = load i64, ptr %2, align 8
  %82 = urem i64 %81, 1000000
  %83 = icmp eq i64 %82, 0
  br i1 %83, label %84, label %89

84:                                               ; preds = %80
  %85 = load i64, ptr %2, align 8
  %86 = udiv i64 %85, 1000000
  store i64 %86, ptr %2, align 8
  %87 = load i64, ptr %2, align 8
  %88 = call i32 (ptr, i64, ptr, ...) @snprintf(ptr noundef @bb_get_size_str.size_str, i64 noundef 64, ptr noundef @.str.76, i64 noundef %87) #9
  br label %112

89:                                               ; preds = %80
  %90 = load i64, ptr %2, align 8
  %91 = urem i64 %90, 1024
  %92 = icmp eq i64 %91, 0
  br i1 %92, label %93, label %98

93:                                               ; preds = %89
  %94 = load i64, ptr %2, align 8
  %95 = udiv i64 %94, 1024
  store i64 %95, ptr %2, align 8
  %96 = load i64, ptr %2, align 8
  %97 = call i32 (ptr, i64, ptr, ...) @snprintf(ptr noundef @bb_get_size_str.size_str, i64 noundef 64, ptr noundef @.str.77, i64 noundef %96) #9
  br label %111

98:                                               ; preds = %89
  %99 = load i64, ptr %2, align 8
  %100 = urem i64 %99, 1000
  %101 = icmp eq i64 %100, 0
  br i1 %101, label %102, label %107

102:                                              ; preds = %98
  %103 = load i64, ptr %2, align 8
  %104 = udiv i64 %103, 1000
  store i64 %104, ptr %2, align 8
  %105 = load i64, ptr %2, align 8
  %106 = call i32 (ptr, i64, ptr, ...) @snprintf(ptr noundef @bb_get_size_str.size_str, i64 noundef 64, ptr noundef @.str.78, i64 noundef %105) #9
  br label %110

107:                                              ; preds = %98
  %108 = load i64, ptr %2, align 8
  %109 = call i32 (ptr, i64, ptr, ...) @snprintf(ptr noundef @bb_get_size_str.size_str, i64 noundef 64, ptr noundef @.str.67, i64 noundef %108) #9
  br label %110

110:                                              ; preds = %107, %102
  br label %111

111:                                              ; preds = %110, %93
  br label %112

112:                                              ; preds = %111, %84
  br label %113

113:                                              ; preds = %112, %75
  br label %114

114:                                              ; preds = %113, %66
  br label %115

115:                                              ; preds = %114, %57
  br label %116

116:                                              ; preds = %115, %48
  br label %117

117:                                              ; preds = %116, %39
  br label %118

118:                                              ; preds = %117, %30
  br label %119

119:                                              ; preds = %118, %21
  br label %120

120:                                              ; preds = %119, %12
  br label %121

121:                                              ; preds = %120, %5
  ret ptr @bb_get_size_str.size_str
}