; Function Attrs: nofree nounwind uwtable
define dso_local noundef nonnull ptr @bb_get_size_str(i64 noundef %0) local_unnamed_addr #10 {
  %2 = icmp eq i64 %0, 0
  br i1 %2, label %3, label %5

3:                                                ; preds = %1
  %4 = tail call i32 (ptr, i64, ptr, ...) @snprintf(ptr noundef nonnull dereferenceable(1) @bb_get_size_str.size_str, i64 noundef 64, ptr noundef nonnull @.str.67, i64 noundef 0) #17
  br label %71

5:                                                ; preds = %1
  %.not = icmp sgt i64 %0, -1
  br i1 %.not, label %9, label %6

6:                                                ; preds = %5
  %7 = and i64 %0, 9223372036854775807
  %8 = tail call i32 (ptr, i64, ptr, ...) @snprintf(ptr noundef nonnull dereferenceable(1) @bb_get_size_str.size_str, i64 noundef 64, ptr noundef nonnull @.str.68, i64 noundef %7) #17
  br label %71

9:                                                ; preds = %5
  %10 = and i64 %0, 1125899906842623
  %11 = icmp eq i64 %10, 0
  br i1 %11, label %12, label %15

12:                                               ; preds = %9
  %13 = lshr exact i64 %0, 50
  %14 = tail call i32 (ptr, i64, ptr, ...) @snprintf(ptr noundef nonnull dereferenceable(1) @bb_get_size_str.size_str, i64 noundef 64, ptr noundef nonnull @.str.69, i64 noundef %13) #17
  br label %71

15:                                               ; preds = %9
  %16 = urem i64 %0, 1000000000000000
  %17 = udiv i64 %0, 1000000000000000
  %18 = icmp eq i64 %16, 0
  br i1 %18, label %19, label %21

19:                                               ; preds = %15
  %20 = tail call i32 (ptr, i64, ptr, ...) @snprintf(ptr noundef nonnull dereferenceable(1) @bb_get_size_str.size_str, i64 noundef 64, ptr noundef nonnull @.str.70, i64 noundef %17) #17
  br label %71

21:                                               ; preds = %15
  %22 = and i64 %0, 1099511627775
  %23 = icmp eq i64 %22, 0
  br i1 %23, label %24, label %27

24:                                               ; preds = %21
  %25 = lshr exact i64 %0, 40
  %26 = tail call i32 (ptr, i64, ptr, ...) @snprintf(ptr noundef nonnull dereferenceable(1) @bb_get_size_str.size_str, i64 noundef 64, ptr noundef nonnull @.str.71, i64 noundef %25) #17
  br label %71

27:                                               ; preds = %21
  %28 = urem i64 %0, 1000000000000
  %29 = udiv i64 %0, 1000000000000
  %30 = icmp eq i64 %28, 0
  br i1 %30, label %31, label %33

31:                                               ; preds = %27
  %32 = tail call i32 (ptr, i64, ptr, ...) @snprintf(ptr noundef nonnull dereferenceable(1) @bb_get_size_str.size_str, i64 noundef 64, ptr noundef nonnull @.str.72, i64 noundef %29) #17
  br label %71

33:                                               ; preds = %27
  %34 = and i64 %0, 1073741823
  %35 = icmp eq i64 %34, 0
  br i1 %35, label %36, label %39

36:                                               ; preds = %33
  %37 = lshr exact i64 %0, 30
  %38 = tail call i32 (ptr, i64, ptr, ...) @snprintf(ptr noundef nonnull dereferenceable(1) @bb_get_size_str.size_str, i64 noundef 64, ptr noundef nonnull @.str.73, i64 noundef %37) #17
  br label %71

39:                                               ; preds = %33
  %40 = urem i64 %0, 1000000000
  %41 = udiv i64 %0, 1000000000
  %42 = icmp eq i64 %40, 0
  br i1 %42, label %43, label %45

43:                                               ; preds = %39
  %44 = tail call i32 (ptr, i64, ptr, ...) @snprintf(ptr noundef nonnull dereferenceable(1) @bb_get_size_str.size_str, i64 noundef 64, ptr noundef nonnull @.str.74, i64 noundef %41) #17
  br label %71

45:                                               ; preds = %39
  %46 = and i64 %0, 1048575
  %47 = icmp eq i64 %46, 0
  br i1 %47, label %48, label %51

48:                                               ; preds = %45
  %49 = lshr exact i64 %0, 20
  %50 = tail call i32 (ptr, i64, ptr, ...) @snprintf(ptr noundef nonnull dereferenceable(1) @bb_get_size_str.size_str, i64 noundef 64, ptr noundef nonnull @.str.75, i64 noundef %49) #17
  br label %71

51:                                               ; preds = %45
  %52 = urem i64 %0, 1000000
  %53 = udiv i64 %0, 1000000
  %54 = icmp eq i64 %52, 0
  br i1 %54, label %55, label %57

55:                                               ; preds = %51
  %56 = tail call i32 (ptr, i64, ptr, ...) @snprintf(ptr noundef nonnull dereferenceable(1) @bb_get_size_str.size_str, i64 noundef 64, ptr noundef nonnull @.str.76, i64 noundef %53) #17
  br label %71

57:                                               ; preds = %51
  %58 = and i64 %0, 1023
  %59 = icmp eq i64 %58, 0
  br i1 %59, label %60, label %63

60:                                               ; preds = %57
  %61 = lshr exact i64 %0, 10
  %62 = tail call i32 (ptr, i64, ptr, ...) @snprintf(ptr noundef nonnull dereferenceable(1) @bb_get_size_str.size_str, i64 noundef 64, ptr noundef nonnull @.str.77, i64 noundef %61) #17
  br label %71

63:                                               ; preds = %57
  %64 = urem i64 %0, 1000
  %65 = udiv i64 %0, 1000
  %66 = icmp eq i64 %64, 0
  br i1 %66, label %67, label %69

67:                                               ; preds = %63
  %68 = tail call i32 (ptr, i64, ptr, ...) @snprintf(ptr noundef nonnull dereferenceable(1) @bb_get_size_str.size_str, i64 noundef 64, ptr noundef nonnull @.str.78, i64 noundef %65) #17
  br label %71

69:                                               ; preds = %63
  %70 = tail call i32 (ptr, i64, ptr, ...) @snprintf(ptr noundef nonnull dereferenceable(1) @bb_get_size_str.size_str, i64 noundef 64, ptr noundef nonnull @.str.67, i64 noundef %0) #17
  br label %71

71:                                               ; preds = %6, %19, %31, %43, %55, %67, %69, %60, %48, %36, %24, %12, %3
  ret ptr @bb_get_size_str.size_str
}